; Function Attrs: mustprogress uwtable
define internal void @_ZNK6google8protobuf8compiler3cpp12_GLOBAL__N_115SingularMessage19GenerateMergingCodeEPNS0_2io7PrinterE(ptr nocapture noundef nonnull readonly align 8 dereferenceable(106) %this, ptr noundef %p) unnamed_addr #3 align 2 personality ptr @__gxx_personality_v0 {
entry:
  %is_weak_.i = getelementptr inbounds i8, ptr %this, i64 75
  %0 = load i8, ptr %is_weak_.i, align 1
  %1 = and i8 %0, 1
  %tobool.i.not = icmp eq i8 %1, 0
  br i1 %tobool.i.not, label %if.else, label %if.then

if.then:                                          ; preds = %entry
  tail call void @_ZN6google8protobuf2io7Printer4EmitEN4absl12lts_202308024SpanIKNS2_3SubEEESt17basic_string_viewIcSt11char_traitsIcEENS2_14SourceLocationE(ptr noundef nonnull align 8 dereferenceable(256) %p, ptr null, i64 0, i64 188, ptr nonnull @.str.52)
  br label %if.end12

if.else:                                          ; preds = %entry
  %should_split_.i = getelementptr inbounds i8, ptr %this, i64 64
  %2 = load i8, ptr %should_split_.i, align 8
  %3 = and i8 %2, 1
  %tobool.i3.not = icmp eq i8 %3, 0
  br i1 %tobool.i3.not, label %if.else8, label %if.then4

if.then4:                                         ; preds = %if.else
  tail call void @_ZN6google8protobuf2io7Printer4EmitEN4absl12lts_202308024SpanIKNS2_3SubEEESt17basic_string_viewIcSt11char_traitsIcEENS2_14SourceLocationE(ptr noundef nonnull align 8 dereferenceable(256) %p, ptr null, i64 0, i64 86, ptr nonnull @.str.53)
  br label %if.end12

if.else8:                                         ; preds = %if.else
  tail call void @_ZN6google8protobuf2io7Printer4EmitEN4absl12lts_202308024SpanIKNS2_3SubEEESt17basic_string_viewIcSt11char_traitsIcEENS2_14SourceLocationE(ptr noundef nonnull align 8 dereferenceable(256) %p, ptr null, i64 0, i64 260, ptr nonnull @.str.54)
  br label %if.end12

if.end12:                                         ; preds = %if.then4, %if.else8, %if.then
  ret void
}